Archive member included because of file (symbol)

/Users/yagocarballo/pebble-dev/Pebble/lib/libpebble.a(tmpSeHSpcpebble.o)
                              src/scores_name.c.12.o (action_bar_layer_add_to_window)

Allocating common symbols
Common symbol       size              file

timer               0x4               src/main.c.12.o
splashImage         0x4               src/main.c.12.o
splashLayer         0x4               src/main.c.12.o
window              0x4               src/main.c.12.o

Discarded input sections

 .text          0x0000000000000000        0x0 /Users/yagocarballo/pebble-dev/arm-cs-tools/bin/../lib/gcc/arm-none-eabi/4.7.2/thumb2/crti.o
 .bss           0x0000000000000000        0x0 /Users/yagocarballo/pebble-dev/arm-cs-tools/bin/../lib/gcc/arm-none-eabi/4.7.2/thumb2/crti.o
 .init          0x0000000000000000        0x4 /Users/yagocarballo/pebble-dev/arm-cs-tools/bin/../lib/gcc/arm-none-eabi/4.7.2/thumb2/crti.o
 .fini          0x0000000000000000        0x4 /Users/yagocarballo/pebble-dev/arm-cs-tools/bin/../lib/gcc/arm-none-eabi/4.7.2/thumb2/crti.o
 .text          0x0000000000000000       0xc8 /Users/yagocarballo/pebble-dev/arm-cs-tools/bin/../lib/gcc/arm-none-eabi/4.7.2/thumb2/crtbegin.o
 .bss           0x0000000000000000       0x1c /Users/yagocarballo/pebble-dev/arm-cs-tools/bin/../lib/gcc/arm-none-eabi/4.7.2/thumb2/crtbegin.o
 .init_array    0x0000000000000000        0x4 /Users/yagocarballo/pebble-dev/arm-cs-tools/bin/../lib/gcc/arm-none-eabi/4.7.2/thumb2/crtbegin.o
 .fini_array    0x0000000000000000        0x4 /Users/yagocarballo/pebble-dev/arm-cs-tools/bin/../lib/gcc/arm-none-eabi/4.7.2/thumb2/crtbegin.o
 .eh_frame      0x0000000000000000        0x0 /Users/yagocarballo/pebble-dev/arm-cs-tools/bin/../lib/gcc/arm-none-eabi/4.7.2/thumb2/crtbegin.o
 .jcr           0x0000000000000000        0x0 /Users/yagocarballo/pebble-dev/arm-cs-tools/bin/../lib/gcc/arm-none-eabi/4.7.2/thumb2/crtbegin.o
 .tm_clone_table
                0x0000000000000000        0x0 /Users/yagocarballo/pebble-dev/arm-cs-tools/bin/../lib/gcc/arm-none-eabi/4.7.2/thumb2/crtbegin.o
 .text          0x0000000000000000        0x0 src/about.c.12.o
 .bss           0x0000000000000000        0x0 src/about.c.12.o
 .text          0x0000000000000000        0x0 src/board.c.12.o
 .bss           0x0000000000000000        0x0 src/board.c.12.o
 .text          0x0000000000000000        0x0 src/instructions.c.12.o
 .bss           0x0000000000000000        0x0 src/instructions.c.12.o
 .text          0x0000000000000000        0x0 src/main.c.12.o
 .bss           0x0000000000000000        0x0 src/main.c.12.o
 .text          0x0000000000000000        0x0 src/menu.c.12.o
 .bss           0x0000000000000000        0x0 src/menu.c.12.o
 .text          0x0000000000000000        0x0 src/menu_level.c.12.o
 .bss           0x0000000000000000        0x0 src/menu_level.c.12.o
 .text          0x0000000000000000        0x0 src/mini-printf.c.12.o
 .bss           0x0000000000000000        0x0 src/mini-printf.c.12.o
 .text          0x0000000000000000        0x0 src/scores.c.12.o
 .bss           0x0000000000000000        0x0 src/scores.c.12.o
 .text          0x0000000000000000        0x0 src/scores_name.c.12.o
 .bss           0x0000000000000000        0x0 src/scores_name.c.12.o
 .text          0x0000000000000000        0x0 appinfo.auto.c.12.o
 .bss           0x0000000000000000        0x0 appinfo.auto.c.12.o
 .bss           0x0000000000000000        0x0 /Users/yagocarballo/pebble-dev/Pebble/lib/libpebble.a(tmpSeHSpcpebble.o)
 .text.accel_data_service_subscribe
                0x0000000000000000        0xc /Users/yagocarballo/pebble-dev/Pebble/lib/libpebble.a(tmpSeHSpcpebble.o)
 .text.accel_data_service_unsubscribe
                0x0000000000000000        0xc /Users/yagocarballo/pebble-dev/Pebble/lib/libpebble.a(tmpSeHSpcpebble.o)
 .text.accel_service_peek
                0x0000000000000000        0xc /Users/yagocarballo/pebble-dev/Pebble/lib/libpebble.a(tmpSeHSpcpebble.o)
 .text.accel_service_set_samples_per_update
                0x0000000000000000        0xc /Users/yagocarballo/pebble-dev/Pebble/lib/libpebble.a(tmpSeHSpcpebble.o)
 .text.accel_service_set_sampling_rate
                0x0000000000000000        0xc /Users/yagocarballo/pebble-dev/Pebble/lib/libpebble.a(tmpSeHSpcpebble.o)
 .text.accel_tap_service_subscribe
                0x0000000000000000        0xc /Users/yagocarballo/pebble-dev/Pebble/lib/libpebble.a(tmpSeHSpcpebble.o)
 .text.accel_tap_service_unsubscribe
                0x0000000000000000        0xc /Users/yagocarballo/pebble-dev/Pebble/lib/libpebble.a(tmpSeHSpcpebble.o)
 .text.action_bar_layer_clear_icon
                0x0000000000000000        0xc /Users/yagocarballo/pebble-dev/Pebble/lib/libpebble.a(tmpSeHSpcpebble.o)
 .text.action_bar_layer_get_layer
                0x0000000000000000        0xc /Users/yagocarballo/pebble-dev/Pebble/lib/libpebble.a(tmpSeHSpcpebble.o)
 .text.action_bar_layer_remove_from_window
                0x0000000000000000        0xc /Users/yagocarballo/pebble-dev/Pebble/lib/libpebble.a(tmpSeHSpcpebble.o)
 .text.action_bar_layer_set_background_color
                0x0000000000000000        0xc /Users/yagocarballo/pebble-dev/Pebble/lib/libpebble.a(tmpSeHSpcpebble.o)
 .text.action_bar_layer_set_context
                0x0000000000000000        0xc /Users/yagocarballo/pebble-dev/Pebble/lib/libpebble.a(tmpSeHSpcpebble.o)
 .text.animation_create
                0x0000000000000000        0xc /Users/yagocarballo/pebble-dev/Pebble/lib/libpebble.a(tmpSeHSpcpebble.o)
 .text.animation_destroy
                0x0000000000000000        0xc /Users/yagocarballo/pebble-dev/Pebble/lib/libpebble.a(tmpSeHSpcpebble.o)
 .text.animation_get_context
                0x0000000000000000        0xc /Users/yagocarballo/pebble-dev/Pebble/lib/libpebble.a(tmpSeHSpcpebble.o)
 .text.animation_is_scheduled
                0x0000000000000000        0xc /Users/yagocarballo/pebble-dev/Pebble/lib/libpebble.a(tmpSeHSpcpebble.o)
 .text.animation_schedule
                0x0000000000000000        0xc /Users/yagocarballo/pebble-dev/Pebble/lib/libpebble.a(tmpSeHSpcpebble.o)
 .text.animation_set_curve
                0x0000000000000000        0xc /Users/yagocarballo/pebble-dev/Pebble/lib/libpebble.a(tmpSeHSpcpebble.o)
 .text.animation_set_delay
                0x0000000000000000        0xc /Users/yagocarballo/pebble-dev/Pebble/lib/libpebble.a(tmpSeHSpcpebble.o)
 .text.animation_set_duration
                0x0000000000000000        0xc /Users/yagocarballo/pebble-dev/Pebble/lib/libpebble.a(tmpSeHSpcpebble.o)
 .text.animation_set_handlers
                0x0000000000000000        0xc /Users/yagocarballo/pebble-dev/Pebble/lib/libpebble.a(tmpSeHSpcpebble.o)
 .text.animation_set_implementation
                0x0000000000000000        0xc /Users/yagocarballo/pebble-dev/Pebble/lib/libpebble.a(tmpSeHSpcpebble.o)
 .text.animation_unschedule
                0x0000000000000000        0xc /Users/yagocarballo/pebble-dev/Pebble/lib/libpebble.a(tmpSeHSpcpebble.o)
 .text.animation_unschedule_all
                0x0000000000000000        0xc /Users/yagocarballo/pebble-dev/Pebble/lib/libpebble.a(tmpSeHSpcpebble.o)
 .text.app_comm_get_sniff_interval
                0x0000000000000000        0xc /Users/yagocarballo/pebble-dev/Pebble/lib/libpebble.a(tmpSeHSpcpebble.o)
 .text.app_comm_set_sniff_interval
                0x0000000000000000        0xc /Users/yagocarballo/pebble-dev/Pebble/lib/libpebble.a(tmpSeHSpcpebble.o)
 .text.app_message_deregister_callbacks
                0x0000000000000000        0xc /Users/yagocarballo/pebble-dev/Pebble/lib/libpebble.a(tmpSeHSpcpebble.o)
 .text.app_message_open
                0x0000000000000000        0xc /Users/yagocarballo/pebble-dev/Pebble/lib/libpebble.a(tmpSeHSpcpebble.o)
 .text.app_sync_deinit
                0x0000000000000000        0xc /Users/yagocarballo/pebble-dev/Pebble/lib/libpebble.a(tmpSeHSpcpebble.o)
 .text.app_sync_get
                0x0000000000000000        0xc /Users/yagocarballo/pebble-dev/Pebble/lib/libpebble.a(tmpSeHSpcpebble.o)
 .text.app_sync_init
                0x0000000000000000        0xc /Users/yagocarballo/pebble-dev/Pebble/lib/libpebble.a(tmpSeHSpcpebble.o)
 .text.app_sync_set
                0x0000000000000000        0xc /Users/yagocarballo/pebble-dev/Pebble/lib/libpebble.a(tmpSeHSpcpebble.o)
 .text.app_timer_reschedule
                0x0000000000000000        0xc /Users/yagocarballo/pebble-dev/Pebble/lib/libpebble.a(tmpSeHSpcpebble.o)
 .text.atan2_lookup
                0x0000000000000000        0xc /Users/yagocarballo/pebble-dev/Pebble/lib/libpebble.a(tmpSeHSpcpebble.o)
 .text.atoi     0x0000000000000000        0xc /Users/yagocarballo/pebble-dev/Pebble/lib/libpebble.a(tmpSeHSpcpebble.o)
 .text.atol     0x0000000000000000        0xc /Users/yagocarballo/pebble-dev/Pebble/lib/libpebble.a(tmpSeHSpcpebble.o)
 .text.battery_state_service_peek
                0x0000000000000000        0xc /Users/yagocarballo/pebble-dev/Pebble/lib/libpebble.a(tmpSeHSpcpebble.o)
 .text.battery_state_service_subscribe
                0x0000000000000000        0xc /Users/yagocarballo/pebble-dev/Pebble/lib/libpebble.a(tmpSeHSpcpebble.o)
 .text.battery_state_service_unsubscribe
                0x0000000000000000        0xc /Users/yagocarballo/pebble-dev/Pebble/lib/libpebble.a(tmpSeHSpcpebble.o)
 .text.bitmap_layer_set_compositing_mode
                0x0000000000000000        0xc /Users/yagocarballo/pebble-dev/Pebble/lib/libpebble.a(tmpSeHSpcpebble.o)
 .text.bluetooth_connection_service_peek
                0x0000000000000000        0xc /Users/yagocarballo/pebble-dev/Pebble/lib/libpebble.a(tmpSeHSpcpebble.o)
 .text.bluetooth_connection_service_subscribe
                0x0000000000000000        0xc /Users/yagocarballo/pebble-dev/Pebble/lib/libpebble.a(tmpSeHSpcpebble.o)
 .text.bluetooth_connection_service_unsubscribe
                0x0000000000000000        0xc /Users/yagocarballo/pebble-dev/Pebble/lib/libpebble.a(tmpSeHSpcpebble.o)
 .text.click_number_of_clicks_counted
                0x0000000000000000        0xc /Users/yagocarballo/pebble-dev/Pebble/lib/libpebble.a(tmpSeHSpcpebble.o)
 .text.click_recognizer_get_button_id
                0x0000000000000000        0xc /Users/yagocarballo/pebble-dev/Pebble/lib/libpebble.a(tmpSeHSpcpebble.o)
 .text.clock_copy_time_string
                0x0000000000000000        0xc /Users/yagocarballo/pebble-dev/Pebble/lib/libpebble.a(tmpSeHSpcpebble.o)
 .text.clock_is_24h_style
                0x0000000000000000        0xc /Users/yagocarballo/pebble-dev/Pebble/lib/libpebble.a(tmpSeHSpcpebble.o)
 .text.cos_lookup
                0x0000000000000000        0xc /Users/yagocarballo/pebble-dev/Pebble/lib/libpebble.a(tmpSeHSpcpebble.o)
 .text.data_logging_create
                0x0000000000000000        0xc /Users/yagocarballo/pebble-dev/Pebble/lib/libpebble.a(tmpSeHSpcpebble.o)
 .text.data_logging_finish
                0x0000000000000000        0xc /Users/yagocarballo/pebble-dev/Pebble/lib/libpebble.a(tmpSeHSpcpebble.o)
 .text.data_logging_log
                0x0000000000000000        0xc /Users/yagocarballo/pebble-dev/Pebble/lib/libpebble.a(tmpSeHSpcpebble.o)
 .text.dict_calc_buffer_size
                0x0000000000000000        0xc /Users/yagocarballo/pebble-dev/Pebble/lib/libpebble.a(tmpSeHSpcpebble.o)
 .text.dict_calc_buffer_size_from_tuplets
                0x0000000000000000        0xc /Users/yagocarballo/pebble-dev/Pebble/lib/libpebble.a(tmpSeHSpcpebble.o)
 .text.dict_find
                0x0000000000000000        0xc /Users/yagocarballo/pebble-dev/Pebble/lib/libpebble.a(tmpSeHSpcpebble.o)
 .text.dict_merge
                0x0000000000000000        0xc /Users/yagocarballo/pebble-dev/Pebble/lib/libpebble.a(tmpSeHSpcpebble.o)
 .text.dict_read_begin_from_buffer
                0x0000000000000000        0xc /Users/yagocarballo/pebble-dev/Pebble/lib/libpebble.a(tmpSeHSpcpebble.o)
 .text.dict_read_first
                0x0000000000000000        0xc /Users/yagocarballo/pebble-dev/Pebble/lib/libpebble.a(tmpSeHSpcpebble.o)
 .text.dict_read_next
                0x0000000000000000        0xc /Users/yagocarballo/pebble-dev/Pebble/lib/libpebble.a(tmpSeHSpcpebble.o)
 .text.dict_serialize_tuplets
                0x0000000000000000        0xc /Users/yagocarballo/pebble-dev/Pebble/lib/libpebble.a(tmpSeHSpcpebble.o)
 .text.dict_serialize_tuplets_to_buffer__deprecated
                0x0000000000000000        0xc /Users/yagocarballo/pebble-dev/Pebble/lib/libpebble.a(tmpSeHSpcpebble.o)
 .text.dict_serialize_tuplets_to_buffer_with_iter
                0x0000000000000000        0xc /Users/yagocarballo/pebble-dev/Pebble/lib/libpebble.a(tmpSeHSpcpebble.o)
 .text.dict_write_begin
                0x0000000000000000        0xc /Users/yagocarballo/pebble-dev/Pebble/lib/libpebble.a(tmpSeHSpcpebble.o)
 .text.dict_write_cstring
                0x0000000000000000        0xc /Users/yagocarballo/pebble-dev/Pebble/lib/libpebble.a(tmpSeHSpcpebble.o)
 .text.dict_write_data
                0x0000000000000000        0xc /Users/yagocarballo/pebble-dev/Pebble/lib/libpebble.a(tmpSeHSpcpebble.o)
 .text.dict_write_end
                0x0000000000000000        0xc /Users/yagocarballo/pebble-dev/Pebble/lib/libpebble.a(tmpSeHSpcpebble.o)
 .text.dict_write_int
                0x0000000000000000        0xc /Users/yagocarballo/pebble-dev/Pebble/lib/libpebble.a(tmpSeHSpcpebble.o)
 .text.dict_write_int16
                0x0000000000000000        0xc /Users/yagocarballo/pebble-dev/Pebble/lib/libpebble.a(tmpSeHSpcpebble.o)
 .text.dict_write_int32
                0x0000000000000000        0xc /Users/yagocarballo/pebble-dev/Pebble/lib/libpebble.a(tmpSeHSpcpebble.o)
 .text.dict_write_int8
                0x0000000000000000        0xc /Users/yagocarballo/pebble-dev/Pebble/lib/libpebble.a(tmpSeHSpcpebble.o)
 .text.dict_write_tuplet
                0x0000000000000000        0xc /Users/yagocarballo/pebble-dev/Pebble/lib/libpebble.a(tmpSeHSpcpebble.o)
 .text.dict_write_uint16
                0x0000000000000000        0xc /Users/yagocarballo/pebble-dev/Pebble/lib/libpebble.a(tmpSeHSpcpebble.o)
 .text.dict_write_uint32
                0x0000000000000000        0xc /Users/yagocarballo/pebble-dev/Pebble/lib/libpebble.a(tmpSeHSpcpebble.o)
 .text.dict_write_uint8
                0x0000000000000000        0xc /Users/yagocarballo/pebble-dev/Pebble/lib/libpebble.a(tmpSeHSpcpebble.o)
 .text.fonts_load_custom_font
                0x0000000000000000        0xc /Users/yagocarballo/pebble-dev/Pebble/lib/libpebble.a(tmpSeHSpcpebble.o)
 .text.fonts_unload_custom_font
                0x0000000000000000        0xc /Users/yagocarballo/pebble-dev/Pebble/lib/libpebble.a(tmpSeHSpcpebble.o)
 .text.gbitmap_create_as_sub_bitmap
                0x0000000000000000        0xc /Users/yagocarballo/pebble-dev/Pebble/lib/libpebble.a(tmpSeHSpcpebble.o)
 .text.gbitmap_create_with_data
                0x0000000000000000        0xc /Users/yagocarballo/pebble-dev/Pebble/lib/libpebble.a(tmpSeHSpcpebble.o)
 .text.gmtime   0x0000000000000000        0xc /Users/yagocarballo/pebble-dev/Pebble/lib/libpebble.a(tmpSeHSpcpebble.o)
 .text.gpath_create
                0x0000000000000000        0xc /Users/yagocarballo/pebble-dev/Pebble/lib/libpebble.a(tmpSeHSpcpebble.o)
 .text.gpath_destroy
                0x0000000000000000        0xc /Users/yagocarballo/pebble-dev/Pebble/lib/libpebble.a(tmpSeHSpcpebble.o)
 .text.gpath_draw_filled
                0x0000000000000000        0xc /Users/yagocarballo/pebble-dev/Pebble/lib/libpebble.a(tmpSeHSpcpebble.o)
 .text.gpath_draw_outline
                0x0000000000000000        0xc /Users/yagocarballo/pebble-dev/Pebble/lib/libpebble.a(tmpSeHSpcpebble.o)
 .text.gpath_move_to
                0x0000000000000000        0xc /Users/yagocarballo/pebble-dev/Pebble/lib/libpebble.a(tmpSeHSpcpebble.o)
 .text.gpath_rotate_to
                0x0000000000000000        0xc /Users/yagocarballo/pebble-dev/Pebble/lib/libpebble.a(tmpSeHSpcpebble.o)
 .text.gpoint_equal
                0x0000000000000000        0xc /Users/yagocarballo/pebble-dev/Pebble/lib/libpebble.a(tmpSeHSpcpebble.o)
 .text.graphics_context_set_compositing_mode
                0x0000000000000000        0xc /Users/yagocarballo/pebble-dev/Pebble/lib/libpebble.a(tmpSeHSpcpebble.o)
 .text.graphics_context_set_stroke_color
                0x0000000000000000        0xc /Users/yagocarballo/pebble-dev/Pebble/lib/libpebble.a(tmpSeHSpcpebble.o)
 .text.graphics_context_set_text_color
                0x0000000000000000        0xc /Users/yagocarballo/pebble-dev/Pebble/lib/libpebble.a(tmpSeHSpcpebble.o)
 .text.graphics_draw_bitmap_in_rect
                0x0000000000000000        0xc /Users/yagocarballo/pebble-dev/Pebble/lib/libpebble.a(tmpSeHSpcpebble.o)
 .text.graphics_draw_circle
                0x0000000000000000        0xc /Users/yagocarballo/pebble-dev/Pebble/lib/libpebble.a(tmpSeHSpcpebble.o)
 .text.graphics_draw_line
                0x0000000000000000        0xc /Users/yagocarballo/pebble-dev/Pebble/lib/libpebble.a(tmpSeHSpcpebble.o)
 .text.graphics_draw_pixel
                0x0000000000000000        0xc /Users/yagocarballo/pebble-dev/Pebble/lib/libpebble.a(tmpSeHSpcpebble.o)
 .text.graphics_draw_rect
                0x0000000000000000        0xc /Users/yagocarballo/pebble-dev/Pebble/lib/libpebble.a(tmpSeHSpcpebble.o)
 .text.graphics_draw_round_rect
                0x0000000000000000        0xc /Users/yagocarballo/pebble-dev/Pebble/lib/libpebble.a(tmpSeHSpcpebble.o)
 .text.graphics_fill_circle
                0x0000000000000000        0xc /Users/yagocarballo/pebble-dev/Pebble/lib/libpebble.a(tmpSeHSpcpebble.o)
 .text.graphics_text_layout_get_max_used_size
                0x0000000000000000        0xc /Users/yagocarballo/pebble-dev/Pebble/lib/libpebble.a(tmpSeHSpcpebble.o)
 .text.grect_align
                0x0000000000000000        0xc /Users/yagocarballo/pebble-dev/Pebble/lib/libpebble.a(tmpSeHSpcpebble.o)
 .text.grect_center_point
                0x0000000000000000        0xc /Users/yagocarballo/pebble-dev/Pebble/lib/libpebble.a(tmpSeHSpcpebble.o)
 .text.grect_clip
                0x0000000000000000        0xc /Users/yagocarballo/pebble-dev/Pebble/lib/libpebble.a(tmpSeHSpcpebble.o)
 .text.grect_contains_point
                0x0000000000000000        0xc /Users/yagocarballo/pebble-dev/Pebble/lib/libpebble.a(tmpSeHSpcpebble.o)
 .text.grect_crop
                0x0000000000000000        0xc /Users/yagocarballo/pebble-dev/Pebble/lib/libpebble.a(tmpSeHSpcpebble.o)
 .text.grect_equal
                0x0000000000000000        0xc /Users/yagocarballo/pebble-dev/Pebble/lib/libpebble.a(tmpSeHSpcpebble.o)
 .text.grect_is_empty
                0x0000000000000000        0xc /Users/yagocarballo/pebble-dev/Pebble/lib/libpebble.a(tmpSeHSpcpebble.o)
 .text.grect_standardize
                0x0000000000000000        0xc /Users/yagocarballo/pebble-dev/Pebble/lib/libpebble.a(tmpSeHSpcpebble.o)
 .text.gsize_equal
                0x0000000000000000        0xc /Users/yagocarballo/pebble-dev/Pebble/lib/libpebble.a(tmpSeHSpcpebble.o)
 .text.inverter_layer_create
                0x0000000000000000        0xc /Users/yagocarballo/pebble-dev/Pebble/lib/libpebble.a(tmpSeHSpcpebble.o)
 .text.inverter_layer_destroy
                0x0000000000000000        0xc /Users/yagocarballo/pebble-dev/Pebble/lib/libpebble.a(tmpSeHSpcpebble.o)
 .text.inverter_layer_get_layer
                0x0000000000000000        0xc /Users/yagocarballo/pebble-dev/Pebble/lib/libpebble.a(tmpSeHSpcpebble.o)
 .text.layer_create_with_data
                0x0000000000000000        0xc /Users/yagocarballo/pebble-dev/Pebble/lib/libpebble.a(tmpSeHSpcpebble.o)
 .text.layer_get_bounds
                0x0000000000000000        0xc /Users/yagocarballo/pebble-dev/Pebble/lib/libpebble.a(tmpSeHSpcpebble.o)
 .text.layer_get_clips
                0x0000000000000000        0xc /Users/yagocarballo/pebble-dev/Pebble/lib/libpebble.a(tmpSeHSpcpebble.o)
 .text.layer_get_data
                0x0000000000000000        0xc /Users/yagocarballo/pebble-dev/Pebble/lib/libpebble.a(tmpSeHSpcpebble.o)
 .text.layer_get_hidden
                0x0000000000000000        0xc /Users/yagocarballo/pebble-dev/Pebble/lib/libpebble.a(tmpSeHSpcpebble.o)
 .text.layer_get_window
                0x0000000000000000        0xc /Users/yagocarballo/pebble-dev/Pebble/lib/libpebble.a(tmpSeHSpcpebble.o)
 .text.layer_insert_above_sibling
                0x0000000000000000        0xc /Users/yagocarballo/pebble-dev/Pebble/lib/libpebble.a(tmpSeHSpcpebble.o)
 .text.layer_insert_below_sibling
                0x0000000000000000        0xc /Users/yagocarballo/pebble-dev/Pebble/lib/libpebble.a(tmpSeHSpcpebble.o)
 .text.layer_remove_child_layers
                0x0000000000000000        0xc /Users/yagocarballo/pebble-dev/Pebble/lib/libpebble.a(tmpSeHSpcpebble.o)
 .text.layer_remove_from_parent
                0x0000000000000000        0xc /Users/yagocarballo/pebble-dev/Pebble/lib/libpebble.a(tmpSeHSpcpebble.o)
 .text.layer_set_bounds
                0x0000000000000000        0xc /Users/yagocarballo/pebble-dev/Pebble/lib/libpebble.a(tmpSeHSpcpebble.o)
 .text.layer_set_clips
                0x0000000000000000        0xc /Users/yagocarballo/pebble-dev/Pebble/lib/libpebble.a(tmpSeHSpcpebble.o)
 .text.layer_set_frame
                0x0000000000000000        0xc /Users/yagocarballo/pebble-dev/Pebble/lib/libpebble.a(tmpSeHSpcpebble.o)
 .text.light_enable
                0x0000000000000000        0xc /Users/yagocarballo/pebble-dev/Pebble/lib/libpebble.a(tmpSeHSpcpebble.o)
 .text.light_enable_interaction
                0x0000000000000000        0xc /Users/yagocarballo/pebble-dev/Pebble/lib/libpebble.a(tmpSeHSpcpebble.o)
 .text.localtime
                0x0000000000000000        0xc /Users/yagocarballo/pebble-dev/Pebble/lib/libpebble.a(tmpSeHSpcpebble.o)
 .text.memcpy   0x0000000000000000        0xc /Users/yagocarballo/pebble-dev/Pebble/lib/libpebble.a(tmpSeHSpcpebble.o)
 .text.memmove  0x0000000000000000        0xc /Users/yagocarballo/pebble-dev/Pebble/lib/libpebble.a(tmpSeHSpcpebble.o)
 .text.menu_cell_basic_draw
                0x0000000000000000        0xc /Users/yagocarballo/pebble-dev/Pebble/lib/libpebble.a(tmpSeHSpcpebble.o)
 .text.menu_cell_basic_header_draw
                0x0000000000000000        0xc /Users/yagocarballo/pebble-dev/Pebble/lib/libpebble.a(tmpSeHSpcpebble.o)
 .text.menu_cell_title_draw
                0x0000000000000000        0xc /Users/yagocarballo/pebble-dev/Pebble/lib/libpebble.a(tmpSeHSpcpebble.o)
 .text.menu_index_compare
                0x0000000000000000        0xc /Users/yagocarballo/pebble-dev/Pebble/lib/libpebble.a(tmpSeHSpcpebble.o)
 .text.menu_layer_create
                0x0000000000000000        0xc /Users/yagocarballo/pebble-dev/Pebble/lib/libpebble.a(tmpSeHSpcpebble.o)
 .text.menu_layer_destroy
                0x0000000000000000        0xc /Users/yagocarballo/pebble-dev/Pebble/lib/libpebble.a(tmpSeHSpcpebble.o)
 .text.menu_layer_get_layer
                0x0000000000000000        0xc /Users/yagocarballo/pebble-dev/Pebble/lib/libpebble.a(tmpSeHSpcpebble.o)
 .text.menu_layer_get_scroll_layer
                0x0000000000000000        0xc /Users/yagocarballo/pebble-dev/Pebble/lib/libpebble.a(tmpSeHSpcpebble.o)
 .text.menu_layer_get_selected_index
                0x0000000000000000        0xc /Users/yagocarballo/pebble-dev/Pebble/lib/libpebble.a(tmpSeHSpcpebble.o)
 .text.menu_layer_reload_data
                0x0000000000000000        0xc /Users/yagocarballo/pebble-dev/Pebble/lib/libpebble.a(tmpSeHSpcpebble.o)
 .text.menu_layer_set_callbacks
                0x0000000000000000        0xc /Users/yagocarballo/pebble-dev/Pebble/lib/libpebble.a(tmpSeHSpcpebble.o)
 .text.menu_layer_set_click_config_onto_window
                0x0000000000000000        0xc /Users/yagocarballo/pebble-dev/Pebble/lib/libpebble.a(tmpSeHSpcpebble.o)
 .text.menu_layer_set_selected_index
                0x0000000000000000        0xc /Users/yagocarballo/pebble-dev/Pebble/lib/libpebble.a(tmpSeHSpcpebble.o)
 .text.menu_layer_set_selected_next
                0x0000000000000000        0xc /Users/yagocarballo/pebble-dev/Pebble/lib/libpebble.a(tmpSeHSpcpebble.o)
 .text.number_window_create
                0x0000000000000000        0xc /Users/yagocarballo/pebble-dev/Pebble/lib/libpebble.a(tmpSeHSpcpebble.o)
 .text.number_window_destroy
                0x0000000000000000        0xc /Users/yagocarballo/pebble-dev/Pebble/lib/libpebble.a(tmpSeHSpcpebble.o)
 .text.number_window_get_value
                0x0000000000000000        0xc /Users/yagocarballo/pebble-dev/Pebble/lib/libpebble.a(tmpSeHSpcpebble.o)
 .text.number_window_set_label
                0x0000000000000000        0xc /Users/yagocarballo/pebble-dev/Pebble/lib/libpebble.a(tmpSeHSpcpebble.o)
 .text.number_window_set_max
                0x0000000000000000        0xc /Users/yagocarballo/pebble-dev/Pebble/lib/libpebble.a(tmpSeHSpcpebble.o)
 .text.number_window_set_min
                0x0000000000000000        0xc /Users/yagocarballo/pebble-dev/Pebble/lib/libpebble.a(tmpSeHSpcpebble.o)
 .text.number_window_set_step_size
                0x0000000000000000        0xc /Users/yagocarballo/pebble-dev/Pebble/lib/libpebble.a(tmpSeHSpcpebble.o)
 .text.number_window_set_value
                0x0000000000000000        0xc /Users/yagocarballo/pebble-dev/Pebble/lib/libpebble.a(tmpSeHSpcpebble.o)
 .text.persist_delete
                0x0000000000000000        0xc /Users/yagocarballo/pebble-dev/Pebble/lib/libpebble.a(tmpSeHSpcpebble.o)
 .text.persist_get_size
                0x0000000000000000        0xc /Users/yagocarballo/pebble-dev/Pebble/lib/libpebble.a(tmpSeHSpcpebble.o)
 .text.persist_read_bool
                0x0000000000000000        0xc /Users/yagocarballo/pebble-dev/Pebble/lib/libpebble.a(tmpSeHSpcpebble.o)
 .text.persist_read_data__deprecated
                0x0000000000000000        0xc /Users/yagocarballo/pebble-dev/Pebble/lib/libpebble.a(tmpSeHSpcpebble.o)
 .text.persist_read_string__deprecated
                0x0000000000000000        0xc /Users/yagocarballo/pebble-dev/Pebble/lib/libpebble.a(tmpSeHSpcpebble.o)
 .text.persist_write_bool
                0x0000000000000000        0xc /Users/yagocarballo/pebble-dev/Pebble/lib/libpebble.a(tmpSeHSpcpebble.o)
 .text.persist_write_data__deprecated
                0x0000000000000000        0xc /Users/yagocarballo/pebble-dev/Pebble/lib/libpebble.a(tmpSeHSpcpebble.o)
 .text.property_animation_create
                0x0000000000000000        0xc /Users/yagocarballo/pebble-dev/Pebble/lib/libpebble.a(tmpSeHSpcpebble.o)
 .text.property_animation_create_layer_frame
                0x0000000000000000        0xc /Users/yagocarballo/pebble-dev/Pebble/lib/libpebble.a(tmpSeHSpcpebble.o)
 .text.property_animation_destroy
                0x0000000000000000        0xc /Users/yagocarballo/pebble-dev/Pebble/lib/libpebble.a(tmpSeHSpcpebble.o)
 .text.property_animation_update_gpoint
                0x0000000000000000        0xc /Users/yagocarballo/pebble-dev/Pebble/lib/libpebble.a(tmpSeHSpcpebble.o)
 .text.property_animation_update_grect
                0x0000000000000000        0xc /Users/yagocarballo/pebble-dev/Pebble/lib/libpebble.a(tmpSeHSpcpebble.o)
 .text.property_animation_update_int16
                0x0000000000000000        0xc /Users/yagocarballo/pebble-dev/Pebble/lib/libpebble.a(tmpSeHSpcpebble.o)
 .text.psleep   0x0000000000000000        0xc /Users/yagocarballo/pebble-dev/Pebble/lib/libpebble.a(tmpSeHSpcpebble.o)
 .text.rand     0x0000000000000000        0xc /Users/yagocarballo/pebble-dev/Pebble/lib/libpebble.a(tmpSeHSpcpebble.o)
 .text.resource_get_handle
                0x0000000000000000        0xc /Users/yagocarballo/pebble-dev/Pebble/lib/libpebble.a(tmpSeHSpcpebble.o)
 .text.resource_load
                0x0000000000000000        0xc /Users/yagocarballo/pebble-dev/Pebble/lib/libpebble.a(tmpSeHSpcpebble.o)
 .text.resource_load_byte_range
                0x0000000000000000        0xc /Users/yagocarballo/pebble-dev/Pebble/lib/libpebble.a(tmpSeHSpcpebble.o)
 .text.resource_size
                0x0000000000000000        0xc /Users/yagocarballo/pebble-dev/Pebble/lib/libpebble.a(tmpSeHSpcpebble.o)
 .text.rot_bitmap_layer_create
                0x0000000000000000        0xc /Users/yagocarballo/pebble-dev/Pebble/lib/libpebble.a(tmpSeHSpcpebble.o)
 .text.rot_bitmap_layer_destroy
                0x0000000000000000        0xc /Users/yagocarballo/pebble-dev/Pebble/lib/libpebble.a(tmpSeHSpcpebble.o)
 .text.rot_bitmap_layer_increment_angle
                0x0000000000000000        0xc /Users/yagocarballo/pebble-dev/Pebble/lib/libpebble.a(tmpSeHSpcpebble.o)
 .text.rot_bitmap_layer_set_angle
                0x0000000000000000        0xc /Users/yagocarballo/pebble-dev/Pebble/lib/libpebble.a(tmpSeHSpcpebble.o)
 .text.rot_bitmap_layer_set_corner_clip_color
                0x0000000000000000        0xc /Users/yagocarballo/pebble-dev/Pebble/lib/libpebble.a(tmpSeHSpcpebble.o)
 .text.rot_bitmap_set_compositing_mode
                0x0000000000000000        0xc /Users/yagocarballo/pebble-dev/Pebble/lib/libpebble.a(tmpSeHSpcpebble.o)
 .text.rot_bitmap_set_src_ic
                0x0000000000000000        0xc /Users/yagocarballo/pebble-dev/Pebble/lib/libpebble.a(tmpSeHSpcpebble.o)
 .text.scroll_layer_get_content_offset
                0x0000000000000000        0xc /Users/yagocarballo/pebble-dev/Pebble/lib/libpebble.a(tmpSeHSpcpebble.o)
 .text.scroll_layer_get_content_size
                0x0000000000000000        0xc /Users/yagocarballo/pebble-dev/Pebble/lib/libpebble.a(tmpSeHSpcpebble.o)
 .text.scroll_layer_get_shadow_hidden
                0x0000000000000000        0xc /Users/yagocarballo/pebble-dev/Pebble/lib/libpebble.a(tmpSeHSpcpebble.o)
 .text.scroll_layer_scroll_down_click_handler
                0x0000000000000000        0xc /Users/yagocarballo/pebble-dev/Pebble/lib/libpebble.a(tmpSeHSpcpebble.o)
 .text.scroll_layer_scroll_up_click_handler
                0x0000000000000000        0xc /Users/yagocarballo/pebble-dev/Pebble/lib/libpebble.a(tmpSeHSpcpebble.o)
 .text.scroll_layer_set_callbacks
                0x0000000000000000        0xc /Users/yagocarballo/pebble-dev/Pebble/lib/libpebble.a(tmpSeHSpcpebble.o)
 .text.scroll_layer_set_content_offset
                0x0000000000000000        0xc /Users/yagocarballo/pebble-dev/Pebble/lib/libpebble.a(tmpSeHSpcpebble.o)
 .text.scroll_layer_set_context
                0x0000000000000000        0xc /Users/yagocarballo/pebble-dev/Pebble/lib/libpebble.a(tmpSeHSpcpebble.o)
 .text.scroll_layer_set_frame
                0x0000000000000000        0xc /Users/yagocarballo/pebble-dev/Pebble/lib/libpebble.a(tmpSeHSpcpebble.o)
 .text.scroll_layer_set_shadow_hidden
                0x0000000000000000        0xc /Users/yagocarballo/pebble-dev/Pebble/lib/libpebble.a(tmpSeHSpcpebble.o)
 .text.simple_menu_layer_get_selected_index
                0x0000000000000000        0xc /Users/yagocarballo/pebble-dev/Pebble/lib/libpebble.a(tmpSeHSpcpebble.o)
 .text.sin_lookup
                0x0000000000000000        0xc /Users/yagocarballo/pebble-dev/Pebble/lib/libpebble.a(tmpSeHSpcpebble.o)
 .text.snprintf
                0x0000000000000000        0xc /Users/yagocarballo/pebble-dev/Pebble/lib/libpebble.a(tmpSeHSpcpebble.o)
 .text.srand    0x0000000000000000        0xc /Users/yagocarballo/pebble-dev/Pebble/lib/libpebble.a(tmpSeHSpcpebble.o)
 .text.strftime
                0x0000000000000000        0xc /Users/yagocarballo/pebble-dev/Pebble/lib/libpebble.a(tmpSeHSpcpebble.o)
 .text.strlen   0x0000000000000000        0xc /Users/yagocarballo/pebble-dev/Pebble/lib/libpebble.a(tmpSeHSpcpebble.o)
 .text.strncat  0x0000000000000000        0xc /Users/yagocarballo/pebble-dev/Pebble/lib/libpebble.a(tmpSeHSpcpebble.o)
 .text.strncmp  0x0000000000000000        0xc /Users/yagocarballo/pebble-dev/Pebble/lib/libpebble.a(tmpSeHSpcpebble.o)
 .text.strncpy  0x0000000000000000        0xc /Users/yagocarballo/pebble-dev/Pebble/lib/libpebble.a(tmpSeHSpcpebble.o)
 .text.text_layer_get_text
                0x0000000000000000        0xc /Users/yagocarballo/pebble-dev/Pebble/lib/libpebble.a(tmpSeHSpcpebble.o)
 .text.text_layer_set_overflow_mode
                0x0000000000000000        0xc /Users/yagocarballo/pebble-dev/Pebble/lib/libpebble.a(tmpSeHSpcpebble.o)
 .text.tick_timer_service_init
                0x0000000000000000        0xc /Users/yagocarballo/pebble-dev/Pebble/lib/libpebble.a(tmpSeHSpcpebble.o)
 .text.tick_timer_service_subscribe
                0x0000000000000000        0xc /Users/yagocarballo/pebble-dev/Pebble/lib/libpebble.a(tmpSeHSpcpebble.o)
 .text.tick_timer_service_unsubscribe
                0x0000000000000000        0xc /Users/yagocarballo/pebble-dev/Pebble/lib/libpebble.a(tmpSeHSpcpebble.o)
 .text.time     0x0000000000000000        0xc /Users/yagocarballo/pebble-dev/Pebble/lib/libpebble.a(tmpSeHSpcpebble.o)
 .text.time_ms  0x0000000000000000        0xc /Users/yagocarballo/pebble-dev/Pebble/lib/libpebble.a(tmpSeHSpcpebble.o)
 .text.vibes_cancel
                0x0000000000000000        0xc /Users/yagocarballo/pebble-dev/Pebble/lib/libpebble.a(tmpSeHSpcpebble.o)
 .text.vibes_double_pulse
                0x0000000000000000        0xc /Users/yagocarballo/pebble-dev/Pebble/lib/libpebble.a(tmpSeHSpcpebble.o)
 .text.vibes_enqueue_custom_pattern
                0x0000000000000000        0xc /Users/yagocarballo/pebble-dev/Pebble/lib/libpebble.a(tmpSeHSpcpebble.o)
 .text.vibes_long_pulse
                0x0000000000000000        0xc /Users/yagocarballo/pebble-dev/Pebble/lib/libpebble.a(tmpSeHSpcpebble.o)
 .text.vibes_short_pulse
                0x0000000000000000        0xc /Users/yagocarballo/pebble-dev/Pebble/lib/libpebble.a(tmpSeHSpcpebble.o)
 .text.window_get_click_config_provider
                0x0000000000000000        0xc /Users/yagocarballo/pebble-dev/Pebble/lib/libpebble.a(tmpSeHSpcpebble.o)
 .text.window_get_fullscreen
                0x0000000000000000        0xc /Users/yagocarballo/pebble-dev/Pebble/lib/libpebble.a(tmpSeHSpcpebble.o)
 .text.window_is_loaded
                0x0000000000000000        0xc /Users/yagocarballo/pebble-dev/Pebble/lib/libpebble.a(tmpSeHSpcpebble.o)
 .text.window_set_background_color
                0x0000000000000000        0xc /Users/yagocarballo/pebble-dev/Pebble/lib/libpebble.a(tmpSeHSpcpebble.o)
 .text.window_set_click_config_provider_with_context
                0x0000000000000000        0xc /Users/yagocarballo/pebble-dev/Pebble/lib/libpebble.a(tmpSeHSpcpebble.o)
 .text.window_set_fullscreen
                0x0000000000000000        0xc /Users/yagocarballo/pebble-dev/Pebble/lib/libpebble.a(tmpSeHSpcpebble.o)
 .text.window_set_status_bar_icon
                0x0000000000000000        0xc /Users/yagocarballo/pebble-dev/Pebble/lib/libpebble.a(tmpSeHSpcpebble.o)
 .text.window_stack_contains_window
                0x0000000000000000        0xc /Users/yagocarballo/pebble-dev/Pebble/lib/libpebble.a(tmpSeHSpcpebble.o)
 .text.window_stack_get_top_window
                0x0000000000000000        0xc /Users/yagocarballo/pebble-dev/Pebble/lib/libpebble.a(tmpSeHSpcpebble.o)
 .text.window_stack_pop_all
                0x0000000000000000        0xc /Users/yagocarballo/pebble-dev/Pebble/lib/libpebble.a(tmpSeHSpcpebble.o)
 .text.app_focus_service_subscribe
                0x0000000000000000        0xc /Users/yagocarballo/pebble-dev/Pebble/lib/libpebble.a(tmpSeHSpcpebble.o)
 .text.app_focus_service_unsubscribe
                0x0000000000000000        0xc /Users/yagocarballo/pebble-dev/Pebble/lib/libpebble.a(tmpSeHSpcpebble.o)
 .text.window_get_user_data
                0x0000000000000000        0xc /Users/yagocarballo/pebble-dev/Pebble/lib/libpebble.a(tmpSeHSpcpebble.o)
 .text.window_set_user_data
                0x0000000000000000        0xc /Users/yagocarballo/pebble-dev/Pebble/lib/libpebble.a(tmpSeHSpcpebble.o)
 .text.app_message_get_context
                0x0000000000000000        0xc /Users/yagocarballo/pebble-dev/Pebble/lib/libpebble.a(tmpSeHSpcpebble.o)
 .text.app_message_inbox_size_maximum
                0x0000000000000000        0xc /Users/yagocarballo/pebble-dev/Pebble/lib/libpebble.a(tmpSeHSpcpebble.o)
 .text.app_message_outbox_begin
                0x0000000000000000        0xc /Users/yagocarballo/pebble-dev/Pebble/lib/libpebble.a(tmpSeHSpcpebble.o)
 .text.app_message_outbox_send
                0x0000000000000000        0xc /Users/yagocarballo/pebble-dev/Pebble/lib/libpebble.a(tmpSeHSpcpebble.o)
 .text.app_message_outbox_size_maximum
                0x0000000000000000        0xc /Users/yagocarballo/pebble-dev/Pebble/lib/libpebble.a(tmpSeHSpcpebble.o)
 .text.app_message_register_inbox_dropped
                0x0000000000000000        0xc /Users/yagocarballo/pebble-dev/Pebble/lib/libpebble.a(tmpSeHSpcpebble.o)
 .text.app_message_register_inbox_received
                0x0000000000000000        0xc /Users/yagocarballo/pebble-dev/Pebble/lib/libpebble.a(tmpSeHSpcpebble.o)
 .text.app_message_register_outbox_failed
                0x0000000000000000        0xc /Users/yagocarballo/pebble-dev/Pebble/lib/libpebble.a(tmpSeHSpcpebble.o)
 .text.app_message_register_outbox_sent
                0x0000000000000000        0xc /Users/yagocarballo/pebble-dev/Pebble/lib/libpebble.a(tmpSeHSpcpebble.o)
 .text.app_message_set_context
                0x0000000000000000        0xc /Users/yagocarballo/pebble-dev/Pebble/lib/libpebble.a(tmpSeHSpcpebble.o)
 .text.window_long_click_subscribe
                0x0000000000000000        0xc /Users/yagocarballo/pebble-dev/Pebble/lib/libpebble.a(tmpSeHSpcpebble.o)
 .text.window_multi_click_subscribe
                0x0000000000000000        0xc /Users/yagocarballo/pebble-dev/Pebble/lib/libpebble.a(tmpSeHSpcpebble.o)
 .text.window_raw_click_subscribe
                0x0000000000000000        0xc /Users/yagocarballo/pebble-dev/Pebble/lib/libpebble.a(tmpSeHSpcpebble.o)
 .text.window_set_click_context
                0x0000000000000000        0xc /Users/yagocarballo/pebble-dev/Pebble/lib/libpebble.a(tmpSeHSpcpebble.o)
 .text.window_single_repeating_click_subscribe
                0x0000000000000000        0xc /Users/yagocarballo/pebble-dev/Pebble/lib/libpebble.a(tmpSeHSpcpebble.o)
 .text.graphics_draw_text
                0x0000000000000000        0xc /Users/yagocarballo/pebble-dev/Pebble/lib/libpebble.a(tmpSeHSpcpebble.o)
 .text.dict_serialize_tuplets_to_buffer
                0x0000000000000000        0xc /Users/yagocarballo/pebble-dev/Pebble/lib/libpebble.a(tmpSeHSpcpebble.o)
 .text.persist_read_data
                0x0000000000000000        0xc /Users/yagocarballo/pebble-dev/Pebble/lib/libpebble.a(tmpSeHSpcpebble.o)
 .text.persist_write_data
                0x0000000000000000        0xc /Users/yagocarballo/pebble-dev/Pebble/lib/libpebble.a(tmpSeHSpcpebble.o)
 .text.dict_size
                0x0000000000000000        0xc /Users/yagocarballo/pebble-dev/Pebble/lib/libpebble.a(tmpSeHSpcpebble.o)
 .text          0x0000000000000000        0x0 /Users/yagocarballo/pebble-dev/arm-cs-tools/bin/../lib/gcc/arm-none-eabi/4.7.2/thumb2/crtend.o
 .bss           0x0000000000000000        0x0 /Users/yagocarballo/pebble-dev/arm-cs-tools/bin/../lib/gcc/arm-none-eabi/4.7.2/thumb2/crtend.o
 .eh_frame      0x0000000000000000        0x4 /Users/yagocarballo/pebble-dev/arm-cs-tools/bin/../lib/gcc/arm-none-eabi/4.7.2/thumb2/crtend.o
 .jcr           0x0000000000000000        0x4 /Users/yagocarballo/pebble-dev/arm-cs-tools/bin/../lib/gcc/arm-none-eabi/4.7.2/thumb2/crtend.o
 .tm_clone_table
                0x0000000000000000        0x0 /Users/yagocarballo/pebble-dev/arm-cs-tools/bin/../lib/gcc/arm-none-eabi/4.7.2/thumb2/crtend.o
 .text          0x0000000000000000        0x0 /Users/yagocarballo/pebble-dev/arm-cs-tools/bin/../lib/gcc/arm-none-eabi/4.7.2/thumb2/crtn.o
 .bss           0x0000000000000000        0x0 /Users/yagocarballo/pebble-dev/arm-cs-tools/bin/../lib/gcc/arm-none-eabi/4.7.2/thumb2/crtn.o
 .init          0x0000000000000000        0x8 /Users/yagocarballo/pebble-dev/arm-cs-tools/bin/../lib/gcc/arm-none-eabi/4.7.2/thumb2/crtn.o
 .fini          0x0000000000000000        0x8 /Users/yagocarballo/pebble-dev/arm-cs-tools/bin/../lib/gcc/arm-none-eabi/4.7.2/thumb2/crtn.o

Memory Configuration

Name             Origin             Length             Attributes
APP              0x0000000000000000 0x0000000000006000 xrw
*default*        0x0000000000000000 0xffffffffffffffff

Linker script and memory map

LOAD /Users/yagocarballo/pebble-dev/arm-cs-tools/bin/../lib/gcc/arm-none-eabi/4.7.2/thumb2/crti.o
LOAD /Users/yagocarballo/pebble-dev/arm-cs-tools/bin/../lib/gcc/arm-none-eabi/4.7.2/thumb2/crtbegin.o
LOAD src/about.c.12.o
LOAD src/board.c.12.o
LOAD src/instructions.c.12.o
LOAD src/main.c.12.o
LOAD src/menu.c.12.o
LOAD src/menu_level.c.12.o
LOAD src/mini-printf.c.12.o
LOAD src/scores.c.12.o
LOAD src/scores_name.c.12.o
LOAD appinfo.auto.c.12.o
LOAD /Users/yagocarballo/pebble-dev/Pebble/lib/libpebble.a
START GROUP
LOAD /Users/yagocarballo/pebble-dev/arm-cs-tools/bin/../lib/gcc/arm-none-eabi/4.7.2/thumb2/libgcc.a
LOAD /Users/yagocarballo/pebble-dev/arm-cs-tools/bin/../lib/gcc/arm-none-eabi/4.7.2/../../../../arm-none-eabi/lib/thumb2/libc.a
END GROUP
LOAD /Users/yagocarballo/pebble-dev/arm-cs-tools/bin/../lib/gcc/arm-none-eabi/4.7.2/thumb2/crtend.o
LOAD /Users/yagocarballo/pebble-dev/arm-cs-tools/bin/../lib/gcc/arm-none-eabi/4.7.2/thumb2/crtn.o

.header         0x0000000000000000       0x82
 *(.pbl_header)
 .pbl_header    0x0000000000000000       0x82 appinfo.auto.c.12.o
                0x0000000000000000                __pbl_app_info

.text           0x0000000000000084     0x2283
 *(.text)
 .text          0x0000000000000084       0x14 /Users/yagocarballo/pebble-dev/Pebble/lib/libpebble.a(tmpSeHSpcpebble.o)
 *(.text.*)
 .text.about_window_load
                0x0000000000000098      0x164 src/about.c.12.o
                0x0000000000000098                about_window_load
 .text.about_init
                0x00000000000001fc       0x4c src/about.c.12.o
                0x00000000000001fc                about_init
 .text.about_deinit
                0x0000000000000248       0x2c src/about.c.12.o
                0x0000000000000248                about_deinit
 .text.click_config_provider
                0x0000000000000274       0x28 src/board.c.12.o
 .text.window_load
                0x000000000000029c      0x104 src/board.c.12.o
                0x000000000000029c                window_load
 .text.parseCell
                0x00000000000003a0       0x20 src/board.c.12.o
                0x00000000000003a0                parseCell
 .text.boxDraw  0x00000000000003c0       0xac src/board.c.12.o
                0x00000000000003c0                boxDraw
 .text.move     0x000000000000046c       0x94 src/board.c.12.o
                0x000000000000046c                move
 .text.timer_callback
                0x0000000000000500       0x94 src/board.c.12.o
                0x0000000000000500                timer_callback
 .text.nextLevel
                0x0000000000000594      0x214 src/board.c.12.o
                0x0000000000000594                nextLevel
 .text.select_click_handler
                0x00000000000007a8       0x3c src/board.c.12.o
 .text.do_some_cleanup
                0x00000000000007e4       0x4c src/board.c.12.o
                0x00000000000007e4                do_some_cleanup
 .text.window_appear
                0x0000000000000830      0x104 src/board.c.12.o
                0x0000000000000830                window_appear
 .text.game_init
                0x0000000000000934       0x74 src/board.c.12.o
                0x0000000000000934                game_init
 .text.game_deinit
                0x00000000000009a8       0x50 src/board.c.12.o
                0x00000000000009a8                game_deinit
 .text.instructions_window_load
                0x00000000000009f8      0x164 src/instructions.c.12.o
                0x00000000000009f8                instructions_window_load
 .text.instructions_init
                0x0000000000000b5c       0x4c src/instructions.c.12.o
                0x0000000000000b5c                instructions_init
 .text.instructions_deinit
                0x0000000000000ba8       0x2c src/instructions.c.12.o
                0x0000000000000ba8                instructions_deinit
 .text.splash_deinit
                0x0000000000000bd4       0x50 src/main.c.12.o
                0x0000000000000bd4                splash_deinit
 .text.splash_timer_callback
                0x0000000000000c24       0x1c src/main.c.12.o
                0x0000000000000c24                splash_timer_callback
 .text.init_splash
                0x0000000000000c40       0x9c src/main.c.12.o
                0x0000000000000c40                init_splash
 .text.startup.main
                0x0000000000000cdc       0x24 src/main.c.12.o
                0x0000000000000cdc                main
 .text.menu_window_appear
                0x0000000000000d00       0x58 src/menu.c.12.o
                0x0000000000000d00                menu_window_appear
 .text.menu_window_load
                0x0000000000000d58      0x16c src/menu.c.12.o
                0x0000000000000d58                menu_window_load
 .text.menu_select_callback
                0x0000000000000ec4       0x58 src/menu.c.12.o
                0x0000000000000ec4                menu_select_callback
 .text.menu_init
                0x0000000000000f1c       0x58 src/menu.c.12.o
                0x0000000000000f1c                menu_init
 .text.menu_deinit
                0x0000000000000f74       0x7c src/menu.c.12.o
                0x0000000000000f74                menu_deinit
 .text.menu_level_window_appear
                0x0000000000000ff0       0x20 src/menu_level.c.12.o
                0x0000000000000ff0                menu_level_window_appear
 .text.menu_level_window_load
                0x0000000000001010      0x148 src/menu_level.c.12.o
                0x0000000000001010                menu_level_window_load
 .text.menu_level_select_callback
                0x0000000000001158       0x54 src/menu_level.c.12.o
                0x0000000000001158                menu_level_select_callback
 .text.menu_level_init
                0x00000000000011ac       0x58 src/menu_level.c.12.o
                0x00000000000011ac                menu_level_init
 .text.menu_level_deinit
                0x0000000000001204       0x44 src/menu_level.c.12.o
                0x0000000000001204                menu_level_deinit
 .text._putc.4226
                0x0000000000001248       0x26 src/mini-printf.c.12.o
 .text._puts.4230
                0x000000000000126e       0x34 src/mini-printf.c.12.o
 .text.mini_itoa.part.0
                0x00000000000012a2       0x74 src/mini-printf.c.12.o
 .text.mini_vsnprintf
                0x0000000000001316       0xda src/mini-printf.c.12.o
                0x0000000000001316                mini_vsnprintf
 .text.mini_snprintf
                0x00000000000013f0       0x18 src/mini-printf.c.12.o
                0x00000000000013f0                mini_snprintf
 .text.scores_click_config_provider
                0x0000000000001408       0x28 src/scores.c.12.o
 .text.scores_select_click_handler
                0x0000000000001430        0x6 src/scores.c.12.o
 *fill*         0x0000000000001436        0x2 
 .text.scores_window_load
                0x0000000000001438       0xfc src/scores.c.12.o
                0x0000000000001438                scores_window_load
 .text.scores_window_appear
                0x0000000000001534      0x220 src/scores.c.12.o
                0x0000000000001534                scores_window_appear
 .text.scores_init_with_points_and_name
                0x0000000000001754       0xa0 src/scores.c.12.o
                0x0000000000001754                scores_init_with_points_and_name
 .text.scores_init
                0x00000000000017f4       0x10 src/scores.c.12.o
                0x00000000000017f4                scores_init
 .text.scores_deinit
                0x0000000000001804       0x28 src/scores.c.12.o
                0x0000000000001804                scores_deinit
 .text.scores_name_window_appear
                0x000000000000182c        0x2 src/scores_name.c.12.o
                0x000000000000182c                scores_name_window_appear
 *fill*         0x000000000000182e        0x2 
 .text.scores_name_down_click_handler
                0x0000000000001830       0x68 src/scores_name.c.12.o
                0x0000000000001830                scores_name_down_click_handler
 .text.scores_name_up_click_handler
                0x0000000000001898       0x64 src/scores_name.c.12.o
                0x0000000000001898                scores_name_up_click_handler
 .text.scores_name_window_load
                0x00000000000018fc      0x274 src/scores_name.c.12.o
                0x00000000000018fc                scores_name_window_load
 .text.scores_name_click_config_provider
                0x0000000000001b70       0x30 src/scores_name.c.12.o
 .text.scores_name_init
                0x0000000000001ba0       0x70 src/scores_name.c.12.o
                0x0000000000001ba0                scores_name_init
 .text.scores_name_deinit
                0x0000000000001c10       0x84 src/scores_name.c.12.o
                0x0000000000001c10                scores_name_deinit
 .text.scores_name_select_click_handler
                0x0000000000001c94      0x100 src/scores_name.c.12.o
                0x0000000000001c94                scores_name_select_click_handler
 .text.action_bar_layer_add_to_window
                0x0000000000001d94        0xc /Users/yagocarballo/pebble-dev/Pebble/lib/libpebble.a(tmpSeHSpcpebble.o)
                0x0000000000001d94                action_bar_layer_add_to_window
 .text.action_bar_layer_create
                0x0000000000001da0        0xc /Users/yagocarballo/pebble-dev/Pebble/lib/libpebble.a(tmpSeHSpcpebble.o)
                0x0000000000001da0                action_bar_layer_create
 .text.action_bar_layer_destroy
                0x0000000000001dac        0xc /Users/yagocarballo/pebble-dev/Pebble/lib/libpebble.a(tmpSeHSpcpebble.o)
                0x0000000000001dac                action_bar_layer_destroy
 .text.action_bar_layer_set_click_config_provider
                0x0000000000001db8        0xc /Users/yagocarballo/pebble-dev/Pebble/lib/libpebble.a(tmpSeHSpcpebble.o)
                0x0000000000001db8                action_bar_layer_set_click_config_provider
 .text.action_bar_layer_set_icon
                0x0000000000001dc4        0xc /Users/yagocarballo/pebble-dev/Pebble/lib/libpebble.a(tmpSeHSpcpebble.o)
                0x0000000000001dc4                action_bar_layer_set_icon
 .text.app_event_loop
                0x0000000000001dd0        0xc /Users/yagocarballo/pebble-dev/Pebble/lib/libpebble.a(tmpSeHSpcpebble.o)
                0x0000000000001dd0                app_event_loop
 .text.app_log  0x0000000000001ddc        0xc /Users/yagocarballo/pebble-dev/Pebble/lib/libpebble.a(tmpSeHSpcpebble.o)
                0x0000000000001ddc                app_log
 .text.app_timer_cancel
                0x0000000000001de8        0xc /Users/yagocarballo/pebble-dev/Pebble/lib/libpebble.a(tmpSeHSpcpebble.o)
                0x0000000000001de8                app_timer_cancel
 .text.app_timer_register
                0x0000000000001df4        0xc /Users/yagocarballo/pebble-dev/Pebble/lib/libpebble.a(tmpSeHSpcpebble.o)
                0x0000000000001df4                app_timer_register
 .text.bitmap_layer_create
                0x0000000000001e00        0xc /Users/yagocarballo/pebble-dev/Pebble/lib/libpebble.a(tmpSeHSpcpebble.o)
                0x0000000000001e00                bitmap_layer_create
 .text.bitmap_layer_destroy
                0x0000000000001e0c        0xc /Users/yagocarballo/pebble-dev/Pebble/lib/libpebble.a(tmpSeHSpcpebble.o)
                0x0000000000001e0c                bitmap_layer_destroy
 .text.bitmap_layer_get_layer
                0x0000000000001e18        0xc /Users/yagocarballo/pebble-dev/Pebble/lib/libpebble.a(tmpSeHSpcpebble.o)
                0x0000000000001e18                bitmap_layer_get_layer
 .text.bitmap_layer_set_alignment
                0x0000000000001e24        0xc /Users/yagocarballo/pebble-dev/Pebble/lib/libpebble.a(tmpSeHSpcpebble.o)
                0x0000000000001e24                bitmap_layer_set_alignment
 .text.bitmap_layer_set_background_color
                0x0000000000001e30        0xc /Users/yagocarballo/pebble-dev/Pebble/lib/libpebble.a(tmpSeHSpcpebble.o)
                0x0000000000001e30                bitmap_layer_set_background_color
 .text.bitmap_layer_set_bitmap
                0x0000000000001e3c        0xc /Users/yagocarballo/pebble-dev/Pebble/lib/libpebble.a(tmpSeHSpcpebble.o)
                0x0000000000001e3c                bitmap_layer_set_bitmap
 .text.fonts_get_system_font
                0x0000000000001e48        0xc /Users/yagocarballo/pebble-dev/Pebble/lib/libpebble.a(tmpSeHSpcpebble.o)
                0x0000000000001e48                fonts_get_system_font
 .text.free     0x0000000000001e54        0xc /Users/yagocarballo/pebble-dev/Pebble/lib/libpebble.a(tmpSeHSpcpebble.o)
                0x0000000000001e54                free
 .text.gbitmap_create_with_resource
                0x0000000000001e60        0xc /Users/yagocarballo/pebble-dev/Pebble/lib/libpebble.a(tmpSeHSpcpebble.o)
                0x0000000000001e60                gbitmap_create_with_resource
 .text.gbitmap_destroy
                0x0000000000001e6c        0xc /Users/yagocarballo/pebble-dev/Pebble/lib/libpebble.a(tmpSeHSpcpebble.o)
                0x0000000000001e6c                gbitmap_destroy
 .text.graphics_context_set_fill_color
                0x0000000000001e78        0xc /Users/yagocarballo/pebble-dev/Pebble/lib/libpebble.a(tmpSeHSpcpebble.o)
                0x0000000000001e78                graphics_context_set_fill_color
 .text.graphics_fill_rect
                0x0000000000001e84        0xc /Users/yagocarballo/pebble-dev/Pebble/lib/libpebble.a(tmpSeHSpcpebble.o)
                0x0000000000001e84                graphics_fill_rect
 .text.layer_add_child
                0x0000000000001e90        0xc /Users/yagocarballo/pebble-dev/Pebble/lib/libpebble.a(tmpSeHSpcpebble.o)
                0x0000000000001e90                layer_add_child
 .text.layer_create
                0x0000000000001e9c        0xc /Users/yagocarballo/pebble-dev/Pebble/lib/libpebble.a(tmpSeHSpcpebble.o)
                0x0000000000001e9c                layer_create
 .text.layer_destroy
                0x0000000000001ea8        0xc /Users/yagocarballo/pebble-dev/Pebble/lib/libpebble.a(tmpSeHSpcpebble.o)
                0x0000000000001ea8                layer_destroy
 .text.layer_get_frame
                0x0000000000001eb4        0xc /Users/yagocarballo/pebble-dev/Pebble/lib/libpebble.a(tmpSeHSpcpebble.o)
                0x0000000000001eb4                layer_get_frame
 .text.layer_mark_dirty
                0x0000000000001ec0        0xc /Users/yagocarballo/pebble-dev/Pebble/lib/libpebble.a(tmpSeHSpcpebble.o)
                0x0000000000001ec0                layer_mark_dirty
 .text.layer_set_hidden
                0x0000000000001ecc        0xc /Users/yagocarballo/pebble-dev/Pebble/lib/libpebble.a(tmpSeHSpcpebble.o)
                0x0000000000001ecc                layer_set_hidden
 .text.layer_set_update_proc
                0x0000000000001ed8        0xc /Users/yagocarballo/pebble-dev/Pebble/lib/libpebble.a(tmpSeHSpcpebble.o)
                0x0000000000001ed8                layer_set_update_proc
 .text.malloc   0x0000000000001ee4        0xc /Users/yagocarballo/pebble-dev/Pebble/lib/libpebble.a(tmpSeHSpcpebble.o)
                0x0000000000001ee4                malloc
 .text.memset   0x0000000000001ef0        0xc /Users/yagocarballo/pebble-dev/Pebble/lib/libpebble.a(tmpSeHSpcpebble.o)
                0x0000000000001ef0                memset
 .text.persist_exists
                0x0000000000001efc        0xc /Users/yagocarballo/pebble-dev/Pebble/lib/libpebble.a(tmpSeHSpcpebble.o)
                0x0000000000001efc                persist_exists
 .text.persist_read_int
                0x0000000000001f08        0xc /Users/yagocarballo/pebble-dev/Pebble/lib/libpebble.a(tmpSeHSpcpebble.o)
                0x0000000000001f08                persist_read_int
 .text.persist_write_int
                0x0000000000001f14        0xc /Users/yagocarballo/pebble-dev/Pebble/lib/libpebble.a(tmpSeHSpcpebble.o)
                0x0000000000001f14                persist_write_int
 .text.persist_write_string
                0x0000000000001f20        0xc /Users/yagocarballo/pebble-dev/Pebble/lib/libpebble.a(tmpSeHSpcpebble.o)
                0x0000000000001f20                persist_write_string
 .text.scroll_layer_add_child
                0x0000000000001f2c        0xc /Users/yagocarballo/pebble-dev/Pebble/lib/libpebble.a(tmpSeHSpcpebble.o)
                0x0000000000001f2c                scroll_layer_add_child
 .text.scroll_layer_create
                0x0000000000001f38        0xc /Users/yagocarballo/pebble-dev/Pebble/lib/libpebble.a(tmpSeHSpcpebble.o)
                0x0000000000001f38                scroll_layer_create
 .text.scroll_layer_destroy
                0x0000000000001f44        0xc /Users/yagocarballo/pebble-dev/Pebble/lib/libpebble.a(tmpSeHSpcpebble.o)
                0x0000000000001f44                scroll_layer_destroy
 .text.scroll_layer_get_layer
                0x0000000000001f50        0xc /Users/yagocarballo/pebble-dev/Pebble/lib/libpebble.a(tmpSeHSpcpebble.o)
                0x0000000000001f50                scroll_layer_get_layer
 .text.scroll_layer_set_click_config_onto_window
                0x0000000000001f5c        0xc /Users/yagocarballo/pebble-dev/Pebble/lib/libpebble.a(tmpSeHSpcpebble.o)
                0x0000000000001f5c                scroll_layer_set_click_config_onto_window
 .text.scroll_layer_set_content_size
                0x0000000000001f68        0xc /Users/yagocarballo/pebble-dev/Pebble/lib/libpebble.a(tmpSeHSpcpebble.o)
                0x0000000000001f68                scroll_layer_set_content_size
 .text.simple_menu_layer_create
                0x0000000000001f74        0xc /Users/yagocarballo/pebble-dev/Pebble/lib/libpebble.a(tmpSeHSpcpebble.o)
                0x0000000000001f74                simple_menu_layer_create
 .text.simple_menu_layer_destroy
                0x0000000000001f80        0xc /Users/yagocarballo/pebble-dev/Pebble/lib/libpebble.a(tmpSeHSpcpebble.o)
                0x0000000000001f80                simple_menu_layer_destroy
 .text.simple_menu_layer_get_layer
                0x0000000000001f8c        0xc /Users/yagocarballo/pebble-dev/Pebble/lib/libpebble.a(tmpSeHSpcpebble.o)
                0x0000000000001f8c                simple_menu_layer_get_layer
 .text.simple_menu_layer_set_selected_index
                0x0000000000001f98        0xc /Users/yagocarballo/pebble-dev/Pebble/lib/libpebble.a(tmpSeHSpcpebble.o)
                0x0000000000001f98                simple_menu_layer_set_selected_index
 .text.strcat   0x0000000000001fa4        0xc /Users/yagocarballo/pebble-dev/Pebble/lib/libpebble.a(tmpSeHSpcpebble.o)
                0x0000000000001fa4                strcat
 .text.strcmp   0x0000000000001fb0        0xc /Users/yagocarballo/pebble-dev/Pebble/lib/libpebble.a(tmpSeHSpcpebble.o)
                0x0000000000001fb0                strcmp
 .text.strcpy   0x0000000000001fbc        0xc /Users/yagocarballo/pebble-dev/Pebble/lib/libpebble.a(tmpSeHSpcpebble.o)
                0x0000000000001fbc                strcpy
 .text.text_layer_create
                0x0000000000001fc8        0xc /Users/yagocarballo/pebble-dev/Pebble/lib/libpebble.a(tmpSeHSpcpebble.o)
                0x0000000000001fc8                text_layer_create
 .text.text_layer_destroy
                0x0000000000001fd4        0xc /Users/yagocarballo/pebble-dev/Pebble/lib/libpebble.a(tmpSeHSpcpebble.o)
                0x0000000000001fd4                text_layer_destroy
 .text.text_layer_get_content_size
                0x0000000000001fe0        0xc /Users/yagocarballo/pebble-dev/Pebble/lib/libpebble.a(tmpSeHSpcpebble.o)
                0x0000000000001fe0                text_layer_get_content_size
 .text.text_layer_get_layer
                0x0000000000001fec        0xc /Users/yagocarballo/pebble-dev/Pebble/lib/libpebble.a(tmpSeHSpcpebble.o)
                0x0000000000001fec                text_layer_get_layer
 .text.text_layer_set_background_color
                0x0000000000001ff8        0xc /Users/yagocarballo/pebble-dev/Pebble/lib/libpebble.a(tmpSeHSpcpebble.o)
                0x0000000000001ff8                text_layer_set_background_color
 .text.text_layer_set_font
                0x0000000000002004        0xc /Users/yagocarballo/pebble-dev/Pebble/lib/libpebble.a(tmpSeHSpcpebble.o)
                0x0000000000002004                text_layer_set_font
 .text.text_layer_set_size
                0x0000000000002010        0xc /Users/yagocarballo/pebble-dev/Pebble/lib/libpebble.a(tmpSeHSpcpebble.o)
                0x0000000000002010                text_layer_set_size
 .text.text_layer_set_text
                0x000000000000201c        0xc /Users/yagocarballo/pebble-dev/Pebble/lib/libpebble.a(tmpSeHSpcpebble.o)
                0x000000000000201c                text_layer_set_text
 .text.text_layer_set_text_alignment
                0x0000000000002028        0xc /Users/yagocarballo/pebble-dev/Pebble/lib/libpebble.a(tmpSeHSpcpebble.o)
                0x0000000000002028                text_layer_set_text_alignment
 .text.text_layer_set_text_color
                0x0000000000002034        0xc /Users/yagocarballo/pebble-dev/Pebble/lib/libpebble.a(tmpSeHSpcpebble.o)
                0x0000000000002034                text_layer_set_text_color
 .text.window_create
                0x0000000000002040        0xc /Users/yagocarballo/pebble-dev/Pebble/lib/libpebble.a(tmpSeHSpcpebble.o)
                0x0000000000002040                window_create
 .text.window_destroy
                0x000000000000204c        0xc /Users/yagocarballo/pebble-dev/Pebble/lib/libpebble.a(tmpSeHSpcpebble.o)
                0x000000000000204c                window_destroy
 .text.window_get_root_layer
                0x0000000000002058        0xc /Users/yagocarballo/pebble-dev/Pebble/lib/libpebble.a(tmpSeHSpcpebble.o)
                0x0000000000002058                window_get_root_layer
 .text.window_set_click_config_provider
                0x0000000000002064        0xc /Users/yagocarballo/pebble-dev/Pebble/lib/libpebble.a(tmpSeHSpcpebble.o)
                0x0000000000002064                window_set_click_config_provider
 .text.window_set_window_handlers
                0x0000000000002070        0xc /Users/yagocarballo/pebble-dev/Pebble/lib/libpebble.a(tmpSeHSpcpebble.o)
                0x0000000000002070                window_set_window_handlers
 .text.window_stack_pop
                0x000000000000207c        0xc /Users/yagocarballo/pebble-dev/Pebble/lib/libpebble.a(tmpSeHSpcpebble.o)
                0x000000000000207c                window_stack_pop
 .text.window_stack_push
                0x0000000000002088        0xc /Users/yagocarballo/pebble-dev/Pebble/lib/libpebble.a(tmpSeHSpcpebble.o)
                0x0000000000002088                window_stack_push
 .text.window_stack_remove
                0x0000000000002094        0xc /Users/yagocarballo/pebble-dev/Pebble/lib/libpebble.a(tmpSeHSpcpebble.o)
                0x0000000000002094                window_stack_remove
 .text.window_single_click_subscribe
                0x00000000000020a0        0xc /Users/yagocarballo/pebble-dev/Pebble/lib/libpebble.a(tmpSeHSpcpebble.o)
                0x00000000000020a0                window_single_click_subscribe
 .text.persist_read_string
                0x00000000000020ac        0xc /Users/yagocarballo/pebble-dev/Pebble/lib/libpebble.a(tmpSeHSpcpebble.o)
                0x00000000000020ac                persist_read_string
 *(.rodata)
 .rodata        0x00000000000020b8       0x24 src/scores_name.c.12.o
 *(.rodata*)
 .rodata.str1.1
                0x00000000000020dc       0xca src/about.c.12.o
 .rodata.str1.1
                0x00000000000021a6       0x44 src/board.c.12.o
                                         0x60 (size before relaxing)
 .rodata.str1.1
                0x00000000000021ea       0x7d src/instructions.c.12.o
                                         0xb3 (size before relaxing)
 .rodata.str1.1
                0x0000000000002267       0x1f src/menu.c.12.o
                                         0x4d (size before relaxing)
 .rodata.str1.1
                0x0000000000002286       0x17 src/menu_level.c.12.o
                                         0x32 (size before relaxing)
 .rodata.str1.1
                0x000000000000229d       0x29 src/scores.c.12.o
                                         0x4c (size before relaxing)
 .rodata.str1.1
                0x00000000000022c6        0xd src/scores_name.c.12.o
                                         0x44 (size before relaxing)
 .rodata.letters
                0x00000000000022d3       0x34 src/scores_name.c.12.o

.glue_7         0x0000000000002308        0x0
 .glue_7        0x0000000000000000        0x0 linker stubs

.glue_7t        0x0000000000002308        0x0
 .glue_7t       0x0000000000000000        0x0 linker stubs

.vfp11_veneer   0x0000000000002308        0x0
 .vfp11_veneer  0x0000000000000000        0x0 linker stubs

.v4_bx          0x0000000000002308        0x0
 .v4_bx         0x0000000000000000        0x0 linker stubs

.iplt           0x0000000000002308        0x0
 .iplt          0x0000000000000000        0x0 /Users/yagocarballo/pebble-dev/arm-cs-tools/bin/../lib/gcc/arm-none-eabi/4.7.2/thumb2/crtbegin.o

.rel.dyn        0x0000000000002308        0x0
 .rel.iplt      0x0000000000000000        0x0 /Users/yagocarballo/pebble-dev/arm-cs-tools/bin/../lib/gcc/arm-none-eabi/4.7.2/thumb2/crtbegin.o
 .rel.got       0x0000000000000000        0x0 /Users/yagocarballo/pebble-dev/arm-cs-tools/bin/../lib/gcc/arm-none-eabi/4.7.2/thumb2/crtbegin.o

.data           0x0000000000002308        0x4
 *(.data)
 .data          0x0000000000002308        0x0 /Users/yagocarballo/pebble-dev/arm-cs-tools/bin/../lib/gcc/arm-none-eabi/4.7.2/thumb2/crti.o
 .data          0x0000000000002308        0x4 /Users/yagocarballo/pebble-dev/arm-cs-tools/bin/../lib/gcc/arm-none-eabi/4.7.2/thumb2/crtbegin.o
                0x0000000000002308                __dso_handle
 .data          0x000000000000230c        0x0 src/about.c.12.o
 .data          0x000000000000230c        0x0 src/board.c.12.o
 .data          0x000000000000230c        0x0 src/instructions.c.12.o
 .data          0x000000000000230c        0x0 src/main.c.12.o
 .data          0x000000000000230c        0x0 src/menu.c.12.o
 .data          0x000000000000230c        0x0 src/menu_level.c.12.o
 .data          0x000000000000230c        0x0 src/mini-printf.c.12.o
 .data          0x000000000000230c        0x0 src/scores.c.12.o
 .data          0x000000000000230c        0x0 src/scores_name.c.12.o
 .data          0x000000000000230c        0x0 appinfo.auto.c.12.o
 .data          0x000000000000230c        0x0 /Users/yagocarballo/pebble-dev/Pebble/lib/libpebble.a(tmpSeHSpcpebble.o)
 .data          0x000000000000230c        0x0 /Users/yagocarballo/pebble-dev/arm-cs-tools/bin/../lib/gcc/arm-none-eabi/4.7.2/thumb2/crtend.o
 .data          0x000000000000230c        0x0 /Users/yagocarballo/pebble-dev/arm-cs-tools/bin/../lib/gcc/arm-none-eabi/4.7.2/thumb2/crtn.o
 *(.data.*)

.igot.plt       0x000000000000230c        0x0
 .igot.plt      0x0000000000000000        0x0 /Users/yagocarballo/pebble-dev/arm-cs-tools/bin/../lib/gcc/arm-none-eabi/4.7.2/thumb2/crtbegin.o

.got            0x000000000000230c       0x10
 .got           0x000000000000230c       0x10 /Users/yagocarballo/pebble-dev/arm-cs-tools/bin/../lib/gcc/arm-none-eabi/4.7.2/thumb2/crtbegin.o

.got.plt        0x000000000000231c        0xc
 .got.plt       0x000000000000231c        0xc /Users/yagocarballo/pebble-dev/arm-cs-tools/bin/../lib/gcc/arm-none-eabi/4.7.2/thumb2/crtbegin.o
                0x000000000000231c                _GLOBAL_OFFSET_TABLE_

.bss            0x0000000000002328      0x358
 *(.bss)
 *(.bss.*)
 .bss.ui        0x0000000000002328       0x14 src/about.c.12.o
 .bss.ui        0x000000000000233c       0x14 src/board.c.12.o
 .bss.debug     0x0000000000002350       0x64 src/board.c.12.o
 .bss.status    0x00000000000023b4       0xb8 src/board.c.12.o
 .bss.ui        0x000000000000246c       0x14 src/instructions.c.12.o
 .bss.menuStarted
                0x0000000000002480        0x1 src/main.c.12.o
                0x0000000000002480                menuStarted
 *fill*         0x0000000000002481        0x3 
 .bss.ui        0x0000000000002484       0x5c src/menu.c.12.o
 .bss.status    0x00000000000024e0        0x5 src/menu.c.12.o
 *fill*         0x00000000000024e5        0x3 
 .bss.ui        0x00000000000024e8       0x4c src/menu_level.c.12.o
 .bss.status    0x0000000000002534        0x2 src/menu_level.c.12.o
 *fill*         0x0000000000002536        0x2 
 .bss.ui        0x0000000000002538       0x10 src/scores.c.12.o
 .bss.status    0x0000000000002548       0x5c src/scores.c.12.o
 .bss.ui        0x00000000000025a4       0x6c src/scores_name.c.12.o
 .bss.status    0x0000000000002610       0x60 src/scores_name.c.12.o
 COMMON         0x0000000000002670       0x10 src/main.c.12.o
                0x0000000000002670                timer
                0x0000000000002674                splashImage
                0x0000000000002678                splashLayer
                0x000000000000267c                window

DISCARD
 libc.a(*)
 libm.a(*)
 libgcc.a(*)
 *(.eh_frame)
OUTPUT(/Users/yagocarballo/Desktop/PebbleStacker/pebble_stacker/build/pebble-app.elf elf32-littlearm)

.ARM.attributes
                0x0000000000000000       0x27
 .ARM.attributes
                0x0000000000000000       0x19 /Users/yagocarballo/pebble-dev/arm-cs-tools/bin/../lib/gcc/arm-none-eabi/4.7.2/thumb2/crti.o
 .ARM.attributes
                0x0000000000000019       0x29 /Users/yagocarballo/pebble-dev/arm-cs-tools/bin/../lib/gcc/arm-none-eabi/4.7.2/thumb2/crtbegin.o
 .ARM.attributes
                0x0000000000000042       0x33 src/about.c.12.o
 .ARM.attributes
                0x0000000000000075       0x33 src/board.c.12.o
 .ARM.attributes
                0x00000000000000a8       0x33 src/instructions.c.12.o
 .ARM.attributes
                0x00000000000000db       0x33 src/main.c.12.o
 .ARM.attributes
                0x000000000000010e       0x33 src/menu.c.12.o
 .ARM.attributes
                0x0000000000000141       0x33 src/menu_level.c.12.o
 .ARM.attributes
                0x0000000000000174       0x33 src/mini-printf.c.12.o
 .ARM.attributes
                0x00000000000001a7       0x33 src/scores.c.12.o
 .ARM.attributes
                0x00000000000001da       0x33 src/scores_name.c.12.o
 .ARM.attributes
                0x000000000000020d       0x33 appinfo.auto.c.12.o
 .ARM.attributes
                0x0000000000000240       0x21 /Users/yagocarballo/pebble-dev/Pebble/lib/libpebble.a(tmpSeHSpcpebble.o)
 .ARM.attributes
                0x0000000000000261       0x29 /Users/yagocarballo/pebble-dev/arm-cs-tools/bin/../lib/gcc/arm-none-eabi/4.7.2/thumb2/crtend.o
 .ARM.attributes
                0x000000000000028a       0x19 /Users/yagocarballo/pebble-dev/arm-cs-tools/bin/../lib/gcc/arm-none-eabi/4.7.2/thumb2/crtn.o

.comment        0x0000000000000000       0x4e
 .comment       0x0000000000000000       0x4e /Users/yagocarballo/pebble-dev/arm-cs-tools/bin/../lib/gcc/arm-none-eabi/4.7.2/thumb2/crtbegin.o
                                         0x4f (size before relaxing)
 .comment       0x0000000000000000       0x4f src/about.c.12.o
 .comment       0x0000000000000000       0x4f src/board.c.12.o
 .comment       0x0000000000000000       0x4f src/instructions.c.12.o
 .comment       0x0000000000000000       0x4f src/main.c.12.o
 .comment       0x0000000000000000       0x4f src/menu.c.12.o
 .comment       0x0000000000000000       0x4f src/menu_level.c.12.o
 .comment       0x0000000000000000       0x4f src/mini-printf.c.12.o
 .comment       0x0000000000000000       0x4f src/scores.c.12.o
 .comment       0x0000000000000000       0x4f src/scores_name.c.12.o
 .comment       0x0000000000000000       0x4f appinfo.auto.c.12.o
 .comment       0x0000000000000000       0x4f /Users/yagocarballo/pebble-dev/arm-cs-tools/bin/../lib/gcc/arm-none-eabi/4.7.2/thumb2/crtend.o

.debug_info     0x0000000000000000     0x67c5
 .debug_info    0x0000000000000000      0x85e src/about.c.12.o
 .debug_info    0x000000000000085e     0x12b7 src/board.c.12.o
 .debug_info    0x0000000000001b15      0x85f src/instructions.c.12.o
 .debug_info    0x0000000000002374      0x787 src/main.c.12.o
 .debug_info    0x0000000000002afb      0xb99 src/menu.c.12.o
 .debug_info    0x0000000000003694      0xb21 src/menu_level.c.12.o
 .debug_info    0x00000000000041b5      0x48b src/mini-printf.c.12.o
 .debug_info    0x0000000000004640      0xdeb src/scores.c.12.o
 .debug_info    0x000000000000542b     0x105a src/scores_name.c.12.o
 .debug_info    0x0000000000006485      0x340 appinfo.auto.c.12.o

.debug_abbrev   0x0000000000000000     0x1906
 .debug_abbrev  0x0000000000000000      0x1fa src/about.c.12.o
 .debug_abbrev  0x00000000000001fa      0x434 src/board.c.12.o
 .debug_abbrev  0x000000000000062e      0x1fa src/instructions.c.12.o
 .debug_abbrev  0x0000000000000828      0x277 src/main.c.12.o
 .debug_abbrev  0x0000000000000a9f      0x2cb src/menu.c.12.o
 .debug_abbrev  0x0000000000000d6a      0x2de src/menu_level.c.12.o
 .debug_abbrev  0x0000000000001048      0x224 src/mini-printf.c.12.o
 .debug_abbrev  0x000000000000126c      0x26b src/scores.c.12.o
 .debug_abbrev  0x00000000000014d7      0x384 src/scores_name.c.12.o
 .debug_abbrev  0x000000000000185b       0xab appinfo.auto.c.12.o

.debug_loc      0x0000000000000000     0x15fb
 .debug_loc     0x0000000000000000       0x9a src/about.c.12.o
 .debug_loc     0x000000000000009a      0x59d src/board.c.12.o
 .debug_loc     0x0000000000000637       0x9a src/instructions.c.12.o
 .debug_loc     0x00000000000006d1       0xbf src/main.c.12.o
 .debug_loc     0x0000000000000790      0x1f4 src/menu.c.12.o
 .debug_loc     0x0000000000000984      0x13a src/menu_level.c.12.o
 .debug_loc     0x0000000000000abe      0x52c src/mini-printf.c.12.o
 .debug_loc     0x0000000000000fea      0x1c1 src/scores.c.12.o
 .debug_loc     0x00000000000011ab      0x450 src/scores_name.c.12.o

.debug_aranges  0x0000000000000000      0x290
 .debug_aranges
                0x0000000000000000       0x30 src/about.c.12.o
 .debug_aranges
                0x0000000000000030       0x78 src/board.c.12.o
 .debug_aranges
                0x00000000000000a8       0x30 src/instructions.c.12.o
 .debug_aranges
                0x00000000000000d8       0x38 src/main.c.12.o
 .debug_aranges
                0x0000000000000110       0x40 src/menu.c.12.o
 .debug_aranges
                0x0000000000000150       0x40 src/menu_level.c.12.o
 .debug_aranges
                0x0000000000000190       0x40 src/mini-printf.c.12.o
 .debug_aranges
                0x00000000000001d0       0x50 src/scores.c.12.o
 .debug_aranges
                0x0000000000000220       0x58 src/scores_name.c.12.o
 .debug_aranges
                0x0000000000000278       0x18 appinfo.auto.c.12.o

.debug_ranges   0x0000000000000000      0x2b0
 .debug_ranges  0x0000000000000000       0x20 src/about.c.12.o
 .debug_ranges  0x0000000000000020       0xf0 src/board.c.12.o
 .debug_ranges  0x0000000000000110       0x20 src/instructions.c.12.o
 .debug_ranges  0x0000000000000130       0x28 src/main.c.12.o
 .debug_ranges  0x0000000000000158       0x30 src/menu.c.12.o
 .debug_ranges  0x0000000000000188       0x30 src/menu_level.c.12.o
 .debug_ranges  0x00000000000001b8       0x48 src/mini-printf.c.12.o
 .debug_ranges  0x0000000000000200       0x40 src/scores.c.12.o
 .debug_ranges  0x0000000000000240       0x70 src/scores_name.c.12.o

.debug_line     0x0000000000000000     0x16c5
 .debug_line    0x0000000000000000      0x1a5 src/about.c.12.o
 .debug_line    0x00000000000001a5      0x4d4 src/board.c.12.o
 .debug_line    0x0000000000000679      0x1ac src/instructions.c.12.o
 .debug_line    0x0000000000000825      0x1b3 src/main.c.12.o
 .debug_line    0x00000000000009d8      0x285 src/menu.c.12.o
 .debug_line    0x0000000000000c5d      0x215 src/menu_level.c.12.o
 .debug_line    0x0000000000000e72      0x17e src/mini-printf.c.12.o
 .debug_line    0x0000000000000ff0      0x2e6 src/scores.c.12.o
 .debug_line    0x00000000000012d6      0x2e5 src/scores_name.c.12.o
 .debug_line    0x00000000000015bb      0x10a appinfo.auto.c.12.o

.debug_str      0x0000000000000000     0x1468
 .debug_str     0x0000000000000000      0x470 src/about.c.12.o
                                        0x4ed (size before relaxing)
 .debug_str     0x0000000000000470      0x4b1 src/board.c.12.o
                                        0x89b (size before relaxing)
 .debug_str     0x0000000000000921       0x55 src/instructions.c.12.o
                                        0x509 (size before relaxing)
 .debug_str     0x0000000000000976      0x2dc src/main.c.12.o
                                        0x529 (size before relaxing)
 .debug_str     0x0000000000000c52      0x1ba src/menu.c.12.o
                                        0x655 (size before relaxing)
 .debug_str     0x0000000000000e0c       0x75 src/menu_level.c.12.o
                                        0x611 (size before relaxing)
 .debug_str     0x0000000000000e81       0xa5 src/mini-printf.c.12.o
                                        0x19f (size before relaxing)
 .debug_str     0x0000000000000f26      0x1cf src/scores.c.12.o
                                        0x688 (size before relaxing)
 .debug_str     0x00000000000010f5      0x222 src/scores_name.c.12.o
                                        0x82e (size before relaxing)
 .debug_str     0x0000000000001317      0x151 appinfo.auto.c.12.o
                                        0x30f (size before relaxing)

.debug_frame    0x0000000000000000      0x66c
 .debug_frame   0x0000000000000000       0x6c src/about.c.12.o
 .debug_frame   0x000000000000006c      0x16c src/board.c.12.o
 .debug_frame   0x00000000000001d8       0x6c src/instructions.c.12.o
 .debug_frame   0x0000000000000244       0x80 src/main.c.12.o
 .debug_frame   0x00000000000002c4       0xa0 src/menu.c.12.o
 .debug_frame   0x0000000000000364       0xa0 src/menu_level.c.12.o
 .debug_frame   0x0000000000000404       0xa8 src/mini-printf.c.12.o
 .debug_frame   0x00000000000004ac       0xc4 src/scores.c.12.o
 .debug_frame   0x0000000000000570       0xfc src/scores_name.c.12.o
